; Function Attrs: mustprogress nofree norecurse nosync nounwind willreturn memory(argmem: readwrite) uwtable
define internal noundef zeroext i1 @"_ZNSt17_Function_handlerIFvvEZZN3gmx12_GLOBAL__N_134registerPostStepSchedulingFunctionEPNS1_18ObservablesReducerEENK3$_0clEldRKSt8functionIFvS6_IS0_EEEEUlvE_E10_M_managerERSt9_Any_dataRKSE_St18_Manager_operation"(ptr noundef nonnull writeonly align 8 captures(none) dereferenceable(16) %0, ptr noundef nonnull align 8 dereferenceable(16) %1, i32 noundef %2) #19 align 2 personality ptr @__gxx_personality_v0 {
  switch i32 %2, label %"_ZNSt14_Function_base13_Base_managerIZZN3gmx12_GLOBAL__N_134registerPostStepSchedulingFunctionEPNS1_18ObservablesReducerEENK3$_0clEldRKSt8functionIFvS6_IFvvEEEEEUlvE_E10_M_managerERSt9_Any_dataRKSF_St18_Manager_operation.exit" [
    i32 0, label %4
    i32 1, label %5
    i32 2, label %6
  ]

4:                                                ; preds = %3
  store ptr @"_ZTIZZN3gmx12_GLOBAL__N_134registerPostStepSchedulingFunctionEPNS_18ObservablesReducerEENK3$_0clEldRKSt8functionIFvS4_IFvvEEEEEUlvE_", ptr %0, align 8, !tbaa !347
  br label %"_ZNSt14_Function_base13_Base_managerIZZN3gmx12_GLOBAL__N_134registerPostStepSchedulingFunctionEPNS1_18ObservablesReducerEENK3$_0clEldRKSt8functionIFvS6_IFvvEEEEEUlvE_E10_M_managerERSt9_Any_dataRKSF_St18_Manager_operation.exit"

5:                                                ; preds = %3
  store ptr %1, ptr %0, align 8, !tbaa !172
  br label %"_ZNSt14_Function_base13_Base_managerIZZN3gmx12_GLOBAL__N_134registerPostStepSchedulingFunctionEPNS1_18ObservablesReducerEENK3$_0clEldRKSt8functionIFvS6_IFvvEEEEEUlvE_E10_M_managerERSt9_Any_dataRKSF_St18_Manager_operation.exit"

6:                                                ; preds = %3
  %.val.i = load i64, ptr %1, align 8, !tbaa !498
  store i64 %.val.i, ptr %0, align 8, !tbaa !498
  br label %"_ZNSt14_Function_base13_Base_managerIZZN3gmx12_GLOBAL__N_134registerPostStepSchedulingFunctionEPNS1_18ObservablesReducerEENK3$_0clEldRKSt8functionIFvS6_IFvvEEEEEUlvE_E10_M_managerERSt9_Any_dataRKSF_St18_Manager_operation.exit"

"_ZNSt14_Function_base13_Base_managerIZZN3gmx12_GLOBAL__N_134registerPostStepSchedulingFunctionEPNS1_18ObservablesReducerEENK3$_0clEldRKSt8functionIFvS6_IFvvEEEEEUlvE_E10_M_managerERSt9_Any_dataRKSF_St18_Manager_operation.exit": ; preds = %3, %6, %5, %4
  ret i1 false
}